	.file	"global.c"
	.text
	.section	.rodata
.LC0:
	.string	"bajja is running"
	.text
	.globl	bajja
	.type	bajja, @function
bajja:
.LFB0:
	.cfi_startproc
	pushq	%rbp
	.cfi_def_cfa_offset 16
	.cfi_offset 6, -16
	movq	%rsp, %rbp
	.cfi_def_cfa_register 6
	movl	$.LC0, %edi
	call	puts
	nop
	popq	%rbp
	.cfi_def_cfa 7, 8
	ret
	.cfi_endproc
.LFE0:
	.size	bajja, .-bajja
	.section	.init_array,"aw"
	.align 8
	.quad	bajja
	.section	.rodata
.LC1:
	.string	"bajja is ending"
	.text
	.globl	bajjad
	.type	bajjad, @function
bajjad:
.LFB1:
	.cfi_startproc
	pushq	%rbp
	.cfi_def_cfa_offset 16
	.cfi_offset 6, -16
	movq	%rsp, %rbp
	.cfi_def_cfa_register 6
	movl	$.LC1, %edi
	call	puts
	nop
	popq	%rbp
	.cfi_def_cfa 7, 8
	ret
	.cfi_endproc
.LFE1:
	.size	bajjad, .-bajjad
	.section	.fini_array,"aw"
	.align 8
	.quad	bajjad
	.section	.rodata
.LC2:
	.string	"%s: main...\n"
	.text
	.globl	main
	.type	main, @function
main:
.LFB2:
	.cfi_startproc
	pushq	%rbp
	.cfi_def_cfa_offset 16
	.cfi_offset 6, -16
	movq	%rsp, %rbp
	.cfi_def_cfa_register 6
	subq	$16, %rsp
	movl	%edi, -4(%rbp)
	movq	%rsi, -16(%rbp)
	movq	-16(%rbp), %rax
	movq	(%rax), %rax
	movq	%rax, %rsi
	movl	$.LC2, %edi
	movl	$0, %eax
	call	printf
	movl	$0, %eax
	leave
	.cfi_def_cfa 7, 8
	ret
	.cfi_endproc
.LFE2:
	.size	main, .-main
	.ident	"GCC: (GNU) 9.2.1 20190827 (Red Hat 9.2.1-1)"
	.section	.note.GNU-stack,"",@progbits
